target datalayout = "e-m:e-p270:32:32-p271:32:32-p272:64:64-i64:64-i128:128-f80:128-n8:16:32:64-S128"
target triple = "x86_64-pc-linux-gnu"

%struct.Ivy_Obj_t_ = type { i32, i32, i32, i32, ptr, ptr, ptr, ptr, ptr, ptr, ptr, ptr }

@.str.8 = private unnamed_addr constant [8 x i8] c"Class {\00", align 1
@.str.9 = private unnamed_addr constant [10 x i8] c" %d(%d)%c\00", align 1
@.str.10 = private unnamed_addr constant [4 x i8] c" }\0A\00", align 1

; Function Attrs: inlinehint nounwind uwtable
define internal ptr @Ivy_ObjClassNodeNext(ptr noundef %0) #4 {
  %2 = alloca ptr, align 8
  store ptr %0, ptr %2, align 8, !tbaa !72
  %3 = load ptr, ptr %2, align 8, !tbaa !72
  %4 = getelementptr inbounds nuw %struct.Ivy_Obj_t_, ptr %3, i32 0, i32 8
  %5 = load ptr, ptr %4, align 8, !tbaa !78
  ret ptr %5
}

; Function Attrs: nounwind uwtable
define void @Ivy_FraigPrintClass(ptr noundef %0) #0 {
  %2 = alloca ptr, align 8
  %3 = alloca ptr, align 8
  store ptr %0, ptr %2, align 8, !tbaa !72
  call void @llvm.lifetime.start.p0(i64 8, ptr %3) #12
  %4 = call i32 (ptr, ...) @printf(ptr noundef @.str.8)
  %5 = load ptr, ptr %2, align 8, !tbaa !72
  store ptr %5, ptr %3, align 8, !tbaa !72
  br label %6

6:                                                ; preds = %25, %1
  %7 = load ptr, ptr %3, align 8, !tbaa !72
  %8 = icmp ne ptr %7, null
  br i1 %8, label %9, label %28

9:                                                ; preds = %6
  %10 = load ptr, ptr %3, align 8, !tbaa !72
  %11 = getelementptr inbounds nuw %struct.Ivy_Obj_t_, ptr %10, i32 0, i32 0
  %12 = load i32, ptr %11, align 8, !tbaa !180
  %13 = load ptr, ptr %3, align 8, !tbaa !72
  %14 = getelementptr inbounds nuw %struct.Ivy_Obj_t_, ptr %13, i32 0, i32 2
  %15 = load i32, ptr %14, align 8
  %16 = lshr i32 %15, 11
  %17 = load ptr, ptr %3, align 8, !tbaa !72
  %18 = getelementptr inbounds nuw %struct.Ivy_Obj_t_, ptr %17, i32 0, i32 2
  %19 = load i32, ptr %18, align 8
  %20 = lshr i32 %19, 7
  %21 = and i32 %20, 1
  %22 = icmp ne i32 %21, 0
  %23 = select i1 %22, i32 43, i32 45
  %24 = call i32 (ptr, ...) @printf(ptr noundef @.str.9, i32 noundef %12, i32 noundef %16, i32 noundef %23)
  br label %25

25:                                               ; preds = %9
  %26 = load ptr, ptr %3, align 8, !tbaa !72
  %27 = call ptr @Ivy_ObjClassNodeNext(ptr noundef %26)
  store ptr %27, ptr %3, align 8, !tbaa !72
  br label %6, !llvm.loop !191

28:                                               ; preds = %6
  %29 = call i32 (ptr, ...) @printf(ptr noundef @.str.10)
  call void @llvm.lifetime.end.p0(i64 8, ptr %3) #12
  ret void
}