; Function Attrs: nofree nounwind uwtable
define void @Ivy_FraigPrintClass(ptr noundef readonly %0) local_unnamed_addr #15 {
  %2 = tail call i32 (ptr, ...) @printf(ptr noundef nonnull dereferenceable(1) @.str.8)
  %.not7 = icmp eq ptr %0, null
  br i1 %.not7, label %._crit_edge, label %.lr.ph

.lr.ph:                                           ; preds = %1, %.lr.ph
  %.08 = phi ptr [ %.0.val, %.lr.ph ], [ %0, %1 ]
  %3 = load i32, ptr %.08, align 8, !tbaa !121
  %4 = getelementptr inbounds nuw i8, ptr %.08, i64 8
  %5 = load i32, ptr %4, align 8
  %6 = lshr i32 %5, 11
  %7 = and i32 %5, 128
  %.not6 = icmp eq i32 %7, 0
  %8 = select i1 %.not6, i32 45, i32 43
  %9 = tail call i32 (ptr, ...) @printf(ptr noundef nonnull dereferenceable(1) @.str.9, i32 noundef %3, i32 noundef %6, i32 noundef %8)
  %10 = getelementptr i8, ptr %.08, i64 48
  %.0.val = load ptr, ptr %10, align 8, !tbaa !94
  %.not = icmp eq ptr %.0.val, null
  br i1 %.not, label %._crit_edge, label %.lr.ph, !llvm.loop !198

._crit_edge:                                      ; preds = %.lr.ph, %1
  %puts = tail call i32 @puts(ptr nonnull dereferenceable(1) @str.1)
  ret void
}